; Function Attrs: mustprogress uwtable
define internal void @_ZNK2cv4impl12_GLOBAL__N_120CvtColorLoop_InvokerINS_3hal12cpu_baseline12_GLOBAL__N_111Gray2RGB5x5EEclERKNS_5RangeE(ptr nocapture noundef nonnull readonly align 8 dereferenceable(56) %0, ptr nocapture noundef nonnull readonly align 4 dereferenceable(8) %1) unnamed_addr #0 align 2 personality ptr @__gxx_personality_v0 {
  %3 = alloca %"class.cv::utils::trace::details::Region", align 8
  call void @_ZN2cv5utils5trace7details6RegionC1ERKNS3_21LocationStaticStorageE(ptr noundef nonnull align 8 dereferenceable(12) %3, ptr noundef nonnull align 8 dereferenceable(32) @_ZZNK2cv4impl12_GLOBAL__N_120CvtColorLoop_InvokerINS_3hal12cpu_baseline12_GLOBAL__N_111Gray2RGB5x5EEclERKNS_5RangeEE25__cv_trace_location_fn146)
  %4 = load i32, ptr %1, align 4
  %5 = getelementptr inbounds i8, ptr %0, i64 16
  %6 = getelementptr inbounds i8, ptr %0, i64 32
  %7 = getelementptr inbounds i8, ptr %1, i64 4
  %8 = load i32, ptr %7, align 4
  %9 = icmp slt i32 %4, %8
  br i1 %9, label %.lr.ph, label %._crit_edge

.lr.ph:                                           ; preds = %2
  %10 = getelementptr inbounds i8, ptr %0, i64 40
  %11 = getelementptr inbounds i8, ptr %0, i64 48
  %12 = load i32, ptr %10, align 8
  %13 = icmp sgt i32 %12, 0
  br i1 %13, label %.lr.ph.split.preheader, label %._crit_edge

.lr.ph.split.preheader:                           ; preds = %.lr.ph
  %14 = getelementptr inbounds i8, ptr %0, i64 24
  %15 = load ptr, ptr %14, align 8
  %16 = load i64, ptr %6, align 8
  %17 = sext i32 %4 to i64
  %18 = mul i64 %16, %17
  %19 = getelementptr inbounds i8, ptr %15, i64 %18
  %20 = getelementptr inbounds i8, ptr %0, i64 8
  %21 = load ptr, ptr %20, align 8
  %22 = load i64, ptr %5, align 8
  %23 = mul i64 %22, %17
  %24 = getelementptr inbounds i8, ptr %21, i64 %23
  br label %.lr.ph.split

.lr.ph.split:                                     ; preds = %.lr.ph.split.preheader, %_ZNK2cv3hal12cpu_baseline12_GLOBAL__N_111Gray2RGB5x5clEPKhPhi.exit
  %.015 = phi i32 [ %45, %_ZNK2cv3hal12cpu_baseline12_GLOBAL__N_111Gray2RGB5x5clEPKhPhi.exit ], [ %4, %.lr.ph.split.preheader ]
  %.01014 = phi ptr [ %49, %_ZNK2cv3hal12cpu_baseline12_GLOBAL__N_111Gray2RGB5x5clEPKhPhi.exit ], [ %19, %.lr.ph.split.preheader ]
  %.01113 = phi ptr [ %47, %_ZNK2cv3hal12cpu_baseline12_GLOBAL__N_111Gray2RGB5x5clEPKhPhi.exit ], [ %24, %.lr.ph.split.preheader ]
  %25 = load i32, ptr %10, align 8
  %26 = icmp sgt i32 %25, 0
  br i1 %26, label %.lr.ph.i, label %_ZNK2cv3hal12cpu_baseline12_GLOBAL__N_111Gray2RGB5x5clEPKhPhi.exit

.lr.ph.i:                                         ; preds = %.lr.ph.split
  %27 = load ptr, ptr %11, align 8
  %.val = load i32, ptr %27, align 4
  %28 = icmp eq i32 %.val, 6
  br i1 %28, label %.lr.ph.split.us.i, label %.lr.ph.split.i

.lr.ph.split.us.i:                                ; preds = %.lr.ph.i, %.lr.ph.split.us.i
  %.0163.us.i = phi ptr [ %37, %.lr.ph.split.us.i ], [ %.01113, %.lr.ph.i ]
  %.0172.us.i = phi ptr [ %38, %.lr.ph.split.us.i ], [ %.01014, %.lr.ph.i ]
  %.0181.us.i = phi i32 [ %36, %.lr.ph.split.us.i ], [ 0, %.lr.ph.i ]
  %29 = load i8, ptr %.0163.us.i, align 1
  %30 = zext i8 %29 to i16
  %31 = lshr i16 %30, 3
  %32 = shl nuw nsw i16 %30, 3
  %33 = and i16 %32, 2016
  %34 = shl nuw i16 %31, 11
  %35 = or disjoint i16 %33, %34
  %.0.in.us.i = or disjoint i16 %35, %31
  store i16 %.0.in.us.i, ptr %.0172.us.i, align 2
  %36 = add nuw nsw i32 %.0181.us.i, 1
  %37 = getelementptr inbounds i8, ptr %.0163.us.i, i64 1
  %38 = getelementptr inbounds i8, ptr %.0172.us.i, i64 2
  %exitcond5.not.i = icmp eq i32 %36, %25
  br i1 %exitcond5.not.i, label %_ZNK2cv3hal12cpu_baseline12_GLOBAL__N_111Gray2RGB5x5clEPKhPhi.exit, label %.lr.ph.split.us.i, !llvm.loop !80

.lr.ph.split.i:                                   ; preds = %.lr.ph.i, %.lr.ph.split.i
  %.0163.i = phi ptr [ %43, %.lr.ph.split.i ], [ %.01113, %.lr.ph.i ]
  %.0172.i = phi ptr [ %44, %.lr.ph.split.i ], [ %.01014, %.lr.ph.i ]
  %.0181.i = phi i32 [ %42, %.lr.ph.split.i ], [ 0, %.lr.ph.i ]
  %39 = load i8, ptr %.0163.i, align 1
  %40 = lshr i8 %39, 3
  %41 = zext nneg i8 %40 to i16
  %.0.in.i = mul nuw nsw i16 %41, 1057
  store i16 %.0.in.i, ptr %.0172.i, align 2
  %42 = add nuw nsw i32 %.0181.i, 1
  %43 = getelementptr inbounds i8, ptr %.0163.i, i64 1
  %44 = getelementptr inbounds i8, ptr %.0172.i, i64 2
  %exitcond.not.i = icmp eq i32 %42, %25
  br i1 %exitcond.not.i, label %_ZNK2cv3hal12cpu_baseline12_GLOBAL__N_111Gray2RGB5x5clEPKhPhi.exit, label %.lr.ph.split.i, !llvm.loop !80

_ZNK2cv3hal12cpu_baseline12_GLOBAL__N_111Gray2RGB5x5clEPKhPhi.exit: ; preds = %.lr.ph.split.i, %.lr.ph.split.us.i, %.lr.ph.split
  %45 = add nsw i32 %.015, 1
  %46 = load i64, ptr %5, align 8
  %47 = getelementptr inbounds i8, ptr %.01113, i64 %46
  %48 = load i64, ptr %6, align 8
  %49 = getelementptr inbounds i8, ptr %.01014, i64 %48
  %50 = load i32, ptr %7, align 4
  %51 = icmp slt i32 %45, %50
  br i1 %51, label %.lr.ph.split, label %._crit_edge, !llvm.loop !81

._crit_edge:                                      ; preds = %_ZNK2cv3hal12cpu_baseline12_GLOBAL__N_111Gray2RGB5x5clEPKhPhi.exit, %.lr.ph, %2
  %52 = getelementptr inbounds i8, ptr %3, i64 8
  %53 = load i32, ptr %52, align 8
  %.not.i = icmp eq i32 %53, 0
  br i1 %.not.i, label %_ZN2cv5utils5trace7details6RegionD2Ev.exit, label %54

54:                                               ; preds = %._crit_edge
  invoke void @_ZN2cv5utils5trace7details6Region7destroyEv(ptr noundef nonnull align 8 dereferenceable(12) %3)
          to label %_ZN2cv5utils5trace7details6RegionD2Ev.exit unwind label %55

55:                                               ; preds = %54
  %56 = landingpad { ptr, i32 }
          catch ptr null
  %57 = extractvalue { ptr, i32 } %56, 0
  call void @__clang_call_terminate(ptr %57) #13
  unreachable

_ZN2cv5utils5trace7details6RegionD2Ev.exit:       ; preds = %._crit_edge, %54
  ret void
}